; Function Attrs: mustprogress nofree norecurse nosync nounwind willreturn memory(readwrite, argmem: write, inaccessiblemem: none) uwtable
define void @lv_display_set_user_data(ptr noundef writeonly %0, ptr noundef %1) local_unnamed_addr #5 {
  %.not = icmp eq ptr %0, null
  br i1 %.not, label %3, label %.thread

3:                                                ; preds = %2
  %4 = load ptr, ptr getelementptr inbounds nuw (i8, ptr @lv_global, i64 40), align 8, !tbaa !33
  %.not5 = icmp eq ptr %4, null
  br i1 %.not5, label %6, label %.thread

.thread:                                          ; preds = %2, %3
  %.08 = phi ptr [ %4, %3 ], [ %0, %2 ]
  %5 = getelementptr inbounds nuw i8, ptr %.08, i64 848
  store ptr %1, ptr %5, align 8, !tbaa !81
  br label %6

6:                                                ; preds = %3, %.thread
  ret void
}